target datalayout = "e-m:e-p270:32:32-p271:32:32-p272:64:64-i64:64-i128:128-f80:128-n8:16:32:64-S128"
target triple = "x86_64-pc-linux-gnu"

%struct.expert_field = type { i32, i32 }
%struct._packet_info = type { ptr, ptr, i32, i32, %struct.nstime_t, %struct.nstime_t, %struct.nstime_t, i8, ptr, ptr, ptr, ptr, %struct._address, %struct._address, %struct._address, %struct._address, %struct._address, %struct._address, i32, ptr, i8, [3 x i8], %struct.anon, i32, i32, i32, i32, ptr, i8, ptr, ptr, i16, i16, i32, i32, i16, i32, i32, ptr, ptr, ptr, i8, i8, i16, i16, i16, i32, i16, i16, ptr, ptr, ptr, ptr, ptr, i32, i32 }
%struct.nstime_t = type { i64, i32 }
%struct._address = type { i32, i32, ptr, ptr }
%struct.anon = type { i8, [3 x i8] }
%struct.media_content_info_t = type { i32, ptr, ptr, ptr }
%struct._proto_node = type { ptr, ptr, ptr, ptr, ptr, ptr, ptr }
%struct.field_info = type { ptr, i32, i32, i32, i32, i32, i32, ptr, ptr, ptr, i32, i32 }

@ei_media_too_short = internal global %struct.expert_field zeroinitializer, align 4
@media_type_dissector_table = internal global ptr null, align 8
@tls_handle = internal global ptr null, align 8
@media_handle = internal global ptr null, align 8
@__const.dissect_media.content_info = private unnamed_addr constant { i32, [4 x i8], ptr, ptr, ptr } { i32 5, [4 x i8] zeroinitializer, ptr null, ptr null, ptr null }, align 8
@.str.173 = private unnamed_addr constant [29 x i8] c"application/x-jxta-tls-block\00", align 1
@.str.174 = private unnamed_addr constant [17 x i8] c"application/gzip\00", align 1
@.str.175 = private unnamed_addr constant [29 x i8] c"Uncompressed Element Content\00", align 1
@.str.176 = private unnamed_addr constant [25 x i8] c"text/xml;charset=\22UTF-8\22\00", align 1

; Function Attrs: inlinehint nounwind null_pointer_is_valid sspstrong uwtable
define internal void @proto_item_set_generated(ptr noundef %0) #7 {
  %2 = alloca ptr, align 8
  store ptr %0, ptr %2, align 8
  %3 = load ptr, ptr %2, align 8
  %4 = icmp ne ptr %3, null
  br i1 %4, label %5, label %24

5:                                                ; preds = %1
  br label %6

6:                                                ; preds = %5
  %7 = load ptr, ptr %2, align 8
  %8 = getelementptr inbounds nuw %struct._proto_node, ptr %7, i32 0, i32 5
  %9 = load ptr, ptr %8, align 8
  %10 = icmp ne ptr %9, null
  br i1 %10, label %11, label %22

11:                                               ; preds = %6
  %12 = load ptr, ptr %2, align 8
  %13 = getelementptr inbounds nuw %struct._proto_node, ptr %12, i32 0, i32 5
  %14 = load ptr, ptr %13, align 8
  %15 = getelementptr inbounds nuw %struct.field_info, ptr %14, i32 0, i32 6
  %16 = load i32, ptr %15, align 4
  %17 = or i32 %16, 2
  %18 = load ptr, ptr %2, align 8
  %19 = getelementptr inbounds nuw %struct._proto_node, ptr %18, i32 0, i32 5
  %20 = load ptr, ptr %19, align 8
  %21 = getelementptr inbounds nuw %struct.field_info, ptr %20, i32 0, i32 6
  store i32 %17, ptr %21, align 4
  br label %22

22:                                               ; preds = %11, %6
  br label %23

23:                                               ; preds = %22
  br label %24

24:                                               ; preds = %23, %1
  ret void
}

; Function Attrs: null_pointer_is_valid sspstrong uwtable
define internal i32 @dissect_media(ptr noundef %0, ptr noundef %1, ptr noundef %2, ptr noundef %3) #0 {
  %5 = alloca ptr, align 8
  %6 = alloca ptr, align 8
  %7 = alloca ptr, align 8
  %8 = alloca ptr, align 8
  %9 = alloca i32, align 4
  %10 = alloca ptr, align 8
  %11 = alloca ptr, align 8
  %12 = alloca ptr, align 8
  %13 = alloca %struct.media_content_info_t, align 8
  %14 = alloca ptr, align 8
  %15 = alloca ptr, align 8
  store ptr %0, ptr %5, align 8
  store ptr %1, ptr %6, align 8
  store ptr %2, ptr %7, align 8
  store ptr %3, ptr %8, align 8
  call void @llvm.lifetime.start.p0(i64 4, ptr %9) #14
  store i32 0, ptr %9, align 4
  %16 = load ptr, ptr %5, align 8
  %17 = icmp ne ptr %16, null
  br i1 %17, label %18, label %125

18:                                               ; preds = %4
  call void @llvm.lifetime.start.p0(i64 8, ptr %10) #14
  %19 = load ptr, ptr %7, align 8
  %20 = getelementptr inbounds nuw %struct._packet_info, ptr %19, i32 0, i32 51
  %21 = load ptr, ptr %20, align 8
  %22 = load ptr, ptr %5, align 8
  %23 = call noalias ptr @wmem_strdup(ptr noundef %21, ptr noundef %22)
  store ptr %23, ptr %10, align 8
  call void @llvm.lifetime.start.p0(i64 8, ptr %11) #14
  %24 = load ptr, ptr %10, align 8
  %25 = call ptr @strchr(ptr noundef %24, i32 noundef 59) #17
  store ptr %25, ptr %11, align 8
  call void @llvm.lifetime.start.p0(i64 8, ptr %12) #14
  %26 = load ptr, ptr %7, align 8
  %27 = getelementptr inbounds nuw %struct._packet_info, ptr %26, i32 0, i32 27
  %28 = load ptr, ptr %27, align 8
  store ptr %28, ptr %12, align 8
  call void @llvm.lifetime.start.p0(i64 32, ptr %13) #14
  call void @llvm.memcpy.p0.p0.i64(ptr align 8 %13, ptr align 8 @__const.dissect_media.content_info, i64 32, i1 false)
  %29 = load ptr, ptr %11, align 8
  %30 = icmp ne ptr null, %29
  br i1 %30, label %31, label %40

31:                                               ; preds = %18
  %32 = load ptr, ptr %7, align 8
  %33 = getelementptr inbounds nuw %struct._packet_info, ptr %32, i32 0, i32 51
  %34 = load ptr, ptr %33, align 8
  %35 = load ptr, ptr %11, align 8
  %36 = getelementptr i8, ptr %35, i64 1
  %37 = call noalias ptr @wmem_strdup(ptr noundef %34, ptr noundef %36)
  %38 = getelementptr inbounds nuw %struct.media_content_info_t, ptr %13, i32 0, i32 1
  store ptr %37, ptr %38, align 8
  %39 = load ptr, ptr %11, align 8
  store i8 0, ptr %39, align 1
  br label %40

40:                                               ; preds = %31, %18
  %41 = load ptr, ptr %7, align 8
  %42 = getelementptr inbounds nuw %struct._packet_info, ptr %41, i32 0, i32 51
  %43 = load ptr, ptr %42, align 8
  %44 = load ptr, ptr %10, align 8
  %45 = call noalias ptr @wmem_strdup(ptr noundef %43, ptr noundef %44)
  %46 = load ptr, ptr %7, align 8
  %47 = getelementptr inbounds nuw %struct._packet_info, ptr %46, i32 0, i32 27
  store ptr %45, ptr %47, align 8
  %48 = load ptr, ptr %10, align 8
  %49 = call ptr @ascii_strdown_inplace(ptr noundef %48)
  %50 = load ptr, ptr %10, align 8
  %51 = call i32 @strcmp(ptr noundef @.str.173, ptr noundef %50) #17
  %52 = icmp eq i32 0, %51
  br i1 %52, label %53, label %63

53:                                               ; preds = %40
  %54 = load ptr, ptr @tls_handle, align 8
  %55 = icmp ne ptr null, %54
  br i1 %55, label %56, label %62

56:                                               ; preds = %53
  %57 = load ptr, ptr @tls_handle, align 8
  %58 = load ptr, ptr %6, align 8
  %59 = load ptr, ptr %7, align 8
  %60 = load ptr, ptr %8, align 8
  %61 = call i32 @call_dissector(ptr noundef %57, ptr noundef %58, ptr noundef %59, ptr noundef %60)
  store i32 %61, ptr %9, align 4
  br label %62

62:                                               ; preds = %56, %53
  br label %112

63:                                               ; preds = %40
  %64 = load ptr, ptr %10, align 8
  %65 = call i32 @strcmp(ptr noundef @.str.174, ptr noundef %64) #17
  %66 = icmp eq i32 0, %65
  br i1 %66, label %67, label %91

67:                                               ; preds = %63
  call void @llvm.lifetime.start.p0(i64 8, ptr %14) #14
  %68 = load ptr, ptr %6, align 8
  %69 = load ptr, ptr %6, align 8
  %70 = load ptr, ptr %6, align 8
  %71 = call i32 @tvb_captured_length(ptr noundef %70)
  %72 = call ptr @tvb_child_uncompress_zlib(ptr noundef %68, ptr noundef %69, i32 noundef 0, i32 noundef %71)
  store ptr %72, ptr %14, align 8
  %73 = load ptr, ptr %14, align 8
  %74 = icmp ne ptr null, %73
  br i1 %74, label %75, label %90

75:                                               ; preds = %67
  %76 = load ptr, ptr %7, align 8
  %77 = load ptr, ptr %14, align 8
  call void @add_new_data_source(ptr noundef %76, ptr noundef %77, ptr noundef @.str.175)
  %78 = load ptr, ptr %7, align 8
  call void @increment_dissection_depth(ptr noundef %78)
  %79 = load ptr, ptr %14, align 8
  %80 = load ptr, ptr %7, align 8
  %81 = load ptr, ptr %8, align 8
  %82 = call i32 @dissect_media(ptr noundef @.str.176, ptr noundef %79, ptr noundef %80, ptr noundef %81)
  store i32 %82, ptr %9, align 4
  %83 = load ptr, ptr %7, align 8
  call void @decrement_dissection_depth(ptr noundef %83)
  %84 = load i32, ptr %9, align 4
  %85 = icmp sgt i32 %84, 0
  br i1 %85, label %86, label %89

86:                                               ; preds = %75
  %87 = load ptr, ptr %6, align 8
  %88 = call i32 @tvb_captured_length(ptr noundef %87)
  store i32 %88, ptr %9, align 4
  br label %89

89:                                               ; preds = %86, %75
  br label %90

90:                                               ; preds = %89, %67
  call void @llvm.lifetime.end.p0(i64 8, ptr %14) #14
  br label %111

91:                                               ; preds = %63
  %92 = load ptr, ptr @media_type_dissector_table, align 8
  %93 = load ptr, ptr %10, align 8
  %94 = load ptr, ptr %6, align 8
  %95 = load ptr, ptr %7, align 8
  %96 = load ptr, ptr %8, align 8
  %97 = call i32 @dissector_try_string_with_data(ptr noundef %92, ptr noundef %93, ptr noundef %94, ptr noundef %95, ptr noundef %96, i1 noundef zeroext true, ptr noundef %13)
  %98 = icmp ne i32 %97, 0
  br i1 %98, label %99, label %102

99:                                               ; preds = %91
  %100 = load ptr, ptr %6, align 8
  %101 = call i32 @tvb_captured_length(ptr noundef %100)
  br label %103

102:                                              ; preds = %91
  br label %103

103:                                              ; preds = %102, %99
  %104 = phi i32 [ %101, %99 ], [ 0, %102 ]
  store i32 %104, ptr %9, align 4
  %105 = load i32, ptr %9, align 4
  %106 = load ptr, ptr %6, align 8
  %107 = call i32 @tvb_captured_length(ptr noundef %106)
  %108 = icmp ne i32 %105, %107
  br i1 %108, label %109, label %110

109:                                              ; preds = %103
  br label %110

110:                                              ; preds = %109, %103
  br label %111

111:                                              ; preds = %110, %90
  br label %112

112:                                              ; preds = %111, %62
  %113 = load i32, ptr %9, align 4
  %114 = icmp eq i32 0, %113
  br i1 %114, label %115, label %121

115:                                              ; preds = %112
  %116 = load ptr, ptr @media_handle, align 8
  %117 = load ptr, ptr %6, align 8
  %118 = load ptr, ptr %7, align 8
  %119 = load ptr, ptr %8, align 8
  %120 = call i32 @call_dissector_with_data(ptr noundef %116, ptr noundef %117, ptr noundef %118, ptr noundef %119, ptr noundef %13)
  store i32 %120, ptr %9, align 4
  br label %121

121:                                              ; preds = %115, %112
  %122 = load ptr, ptr %12, align 8
  %123 = load ptr, ptr %7, align 8
  %124 = getelementptr inbounds nuw %struct._packet_info, ptr %123, i32 0, i32 27
  store ptr %122, ptr %124, align 8
  call void @llvm.lifetime.end.p0(i64 32, ptr %13) #14
  call void @llvm.lifetime.end.p0(i64 8, ptr %12) #14
  call void @llvm.lifetime.end.p0(i64 8, ptr %11) #14
  call void @llvm.lifetime.end.p0(i64 8, ptr %10) #14
  br label %125

125:                                              ; preds = %121, %4
  %126 = load i32, ptr %9, align 4
  %127 = icmp eq i32 0, %126
  br i1 %127, label %128, label %133

128:                                              ; preds = %125
  %129 = load ptr, ptr %6, align 8
  %130 = load ptr, ptr %7, align 8
  %131 = load ptr, ptr %8, align 8
  %132 = call i32 @call_data_dissector(ptr noundef %129, ptr noundef %130, ptr noundef %131)
  store i32 %132, ptr %9, align 4
  br label %133

133:                                              ; preds = %128, %125
  %134 = load i32, ptr %9, align 4
  %135 = load ptr, ptr %6, align 8
  %136 = call i32 @tvb_reported_length(ptr noundef %135)
  %137 = icmp slt i32 %134, %136
  br i1 %137, label %138, label %145

138:                                              ; preds = %133
  call void @llvm.lifetime.start.p0(i64 8, ptr %15) #14
  %139 = load ptr, ptr %8, align 8
  %140 = load ptr, ptr %7, align 8
  %141 = load ptr, ptr %6, align 8
  %142 = load i32, ptr %9, align 4
  %143 = call ptr @proto_tree_add_expert(ptr noundef %139, ptr noundef %140, ptr noundef @ei_media_too_short, ptr noundef %141, i32 noundef 0, i32 noundef %142)
  store ptr %143, ptr %15, align 8
  %144 = load ptr, ptr %15, align 8
  call void @proto_item_set_generated(ptr noundef %144)
  call void @llvm.lifetime.end.p0(i64 8, ptr %15) #14
  br label %145

145:                                              ; preds = %138, %133
  %146 = load i32, ptr %9, align 4
  call void @llvm.lifetime.end.p0(i64 4, ptr %9) #14
  ret i32 %146
}