; Function Attrs: null_pointer_is_valid sspstrong uwtable
define internal fastcc i32 @dissect_media(ptr noundef %0, ptr noundef %1, ptr noundef %2, ptr noundef %3) unnamed_addr #0 {
  %5 = alloca %struct.media_content_info_t, align 8
  %.not = icmp eq ptr %0, null
  br i1 %.not, label %.thread65, label %6

6:                                                ; preds = %4
  %7 = getelementptr inbounds nuw i8, ptr %2, i64 408
  %8 = load ptr, ptr %7, align 8
  %9 = tail call noalias ptr @wmem_strdup(ptr noundef %8, ptr noundef nonnull %0)
  %10 = tail call ptr @strchr(ptr noundef %9, i32 noundef 59) #19
  %11 = getelementptr inbounds nuw i8, ptr %2, i64 296
  %12 = load ptr, ptr %11, align 8
  call void @llvm.lifetime.start.p0(i64 32, ptr nonnull %5) #15
  call void @llvm.memcpy.p0.p0.i64(ptr noundef nonnull align 8 dereferenceable(32) %5, ptr noundef nonnull align 8 dereferenceable(32) @__const.dissect_media.content_info, i64 32, i1 false)
  %.not60 = icmp eq ptr %10, null
  br i1 %.not60, label %18, label %13

13:                                               ; preds = %6
  %14 = load ptr, ptr %7, align 8
  %15 = getelementptr i8, ptr %10, i64 1
  %16 = tail call noalias ptr @wmem_strdup(ptr noundef %14, ptr noundef %15)
  %17 = getelementptr inbounds nuw i8, ptr %5, i64 8
  store ptr %16, ptr %17, align 8
  store i8 0, ptr %10, align 1
  br label %18

18:                                               ; preds = %13, %6
  %19 = load ptr, ptr %7, align 8
  %20 = tail call noalias ptr @wmem_strdup(ptr noundef %19, ptr noundef %9)
  store ptr %20, ptr %11, align 8
  %21 = tail call ptr @ascii_strdown_inplace(ptr noundef %9)
  %22 = tail call i32 @strcmp(ptr noundef nonnull dereferenceable(29) @.str.173, ptr noundef %9) #19
  %23 = icmp eq i32 %22, 0
  br i1 %23, label %24, label %28

24:                                               ; preds = %18
  %25 = load ptr, ptr @tls_handle, align 8
  %.not63 = icmp eq ptr %25, null
  br i1 %.not63, label %.thread, label %26

26:                                               ; preds = %24
  %27 = tail call i32 @call_dissector(ptr noundef nonnull %25, ptr noundef %1, ptr noundef %2, ptr noundef %3)
  br label %47

28:                                               ; preds = %18
  %29 = tail call i32 @strcmp(ptr noundef nonnull dereferenceable(17) @.str.174, ptr noundef %9) #19
  %30 = icmp eq i32 %29, 0
  br i1 %30, label %31, label %39

31:                                               ; preds = %28
  %32 = tail call i32 @tvb_captured_length(ptr noundef %1)
  %33 = tail call ptr @tvb_child_uncompress_zlib(ptr noundef %1, ptr noundef %1, i32 noundef 0, i32 noundef %32)
  %.not62 = icmp eq ptr %33, null
  br i1 %.not62, label %.thread, label %34

34:                                               ; preds = %31
  tail call void @add_new_data_source(ptr noundef %2, ptr noundef nonnull %33, ptr noundef nonnull @.str.175)
  tail call void @increment_dissection_depth(ptr noundef %2)
  %35 = tail call fastcc i32 @dissect_media(ptr noundef nonnull @.str.176, ptr noundef nonnull %33, ptr noundef %2, ptr noundef %3)
  tail call void @decrement_dissection_depth(ptr noundef %2)
  %36 = icmp sgt i32 %35, 0
  br i1 %36, label %37, label %47

37:                                               ; preds = %34
  %38 = tail call i32 @tvb_captured_length(ptr noundef %1)
  br label %47

39:                                               ; preds = %28
  %40 = load ptr, ptr @media_type_dissector_table, align 8
  %41 = call i32 @dissector_try_string_with_data(ptr noundef %40, ptr noundef %9, ptr noundef %1, ptr noundef %2, ptr noundef %3, i1 noundef zeroext true, ptr noundef nonnull %5)
  %.not61 = icmp eq i32 %41, 0
  br i1 %.not61, label %44, label %42

42:                                               ; preds = %39
  %43 = call i32 @tvb_captured_length(ptr noundef %1)
  br label %44

44:                                               ; preds = %39, %42
  %45 = phi i32 [ %43, %42 ], [ 0, %39 ]
  %46 = call i32 @tvb_captured_length(ptr noundef %1)
  br label %47

47:                                               ; preds = %37, %34, %44, %26
  %.1 = phi i32 [ %27, %26 ], [ %45, %44 ], [ %38, %37 ], [ %35, %34 ]
  %48 = icmp eq i32 %.1, 0
  br i1 %48, label %.thread, label %.thread67

.thread67:                                        ; preds = %47
  store ptr %12, ptr %11, align 8
  call void @llvm.lifetime.end.p0(i64 32, ptr nonnull %5) #15
  br label %53

.thread:                                          ; preds = %31, %24, %47
  %49 = load ptr, ptr @media_handle, align 8
  %50 = call i32 @call_dissector_with_data(ptr noundef %49, ptr noundef %1, ptr noundef %2, ptr noundef %3, ptr noundef nonnull %5)
  store ptr %12, ptr %11, align 8
  call void @llvm.lifetime.end.p0(i64 32, ptr nonnull %5) #15
  %51 = icmp eq i32 %50, 0
  br i1 %51, label %.thread65, label %53

.thread65:                                        ; preds = %4, %.thread
  %52 = call i32 @call_data_dissector(ptr noundef %1, ptr noundef %2, ptr noundef %3)
  br label %53

53:                                               ; preds = %.thread67, %.thread65, %.thread
  %.4 = phi i32 [ %52, %.thread65 ], [ %50, %.thread ], [ %.1, %.thread67 ]
  %54 = call i32 @tvb_reported_length(ptr noundef %1)
  %55 = icmp slt i32 %.4, %54
  br i1 %55, label %56, label %proto_item_set_generated.exit

56:                                               ; preds = %53
  %57 = call ptr @proto_tree_add_expert(ptr noundef %3, ptr noundef %2, ptr noundef nonnull @ei_media_too_short, ptr noundef %1, i32 noundef 0, i32 noundef %.4)
  %.not.i = icmp eq ptr %57, null
  br i1 %.not.i, label %proto_item_set_generated.exit, label %58

58:                                               ; preds = %56
  %59 = getelementptr inbounds nuw i8, ptr %57, i64 40
  %60 = load ptr, ptr %59, align 8
  %.not5.i = icmp eq ptr %60, null
  br i1 %.not5.i, label %proto_item_set_generated.exit, label %61

61:                                               ; preds = %58
  %62 = getelementptr inbounds nuw i8, ptr %60, i64 28
  %63 = load i32, ptr %62, align 4
  %64 = or i32 %63, 2
  store i32 %64, ptr %62, align 4
  br label %proto_item_set_generated.exit

proto_item_set_generated.exit:                    ; preds = %61, %58, %56, %53
  ret i32 %.4
}